; ModuleID = 'source-C-CXX/56/1138.c'
source_filename = "source-C-CXX/56/1138.c"
target datalayout = "e-m:e-p270:32:32-p271:32:32-p272:64:64-i64:64-f80:128-n8:16:32:64-S128"
target triple = "x86_64-pc-linux-gnu"

@.str = private unnamed_addr constant [3 x i8] c"%d\00", align 1
@.str.1 = private unnamed_addr constant [3 x i8] c"%s\00", align 1

; Function Attrs: nofree nounwind sspstrong uwtable
define dso_local i32 @main() local_unnamed_addr #0 {
  %1 = alloca i32, align 4
  %2 = bitcast i32* %1 to i8*
  call void @llvm.lifetime.start.p0i8(i64 4, i8* nonnull %2) #7
  %3 = call i32 (i8*, ...) @__isoc99_scanf(i8* getelementptr inbounds ([3 x i8], [3 x i8]* @.str, i64 0, i64 0), i32* nonnull %1)
  %4 = load i32, i32* %1, align 4, !tbaa !5
  %5 = zext i32 %4 to i64
  %6 = call i8* @llvm.stacksave()
  %7 = alloca [33 x i8], i64 %5, align 16
  %8 = load i32, i32* %1, align 4, !tbaa !5
  %9 = zext i32 %8 to i64
  %10 = alloca [33 x i8], i64 %9, align 16
  %11 = icmp sgt i32 %8, 0
  br i1 %11, label %13, label %12

12:                                               ; preds = %36, %0
  call void @llvm.stackrestore(i8* %6)
  call void @llvm.lifetime.end.p0i8(i64 4, i8* nonnull %2) #7
  ret i32 0

13:                                               ; preds = %0, %36
  %14 = phi i64 [ %40, %36 ], [ 0, %0 ]
  %15 = phi i32 [ %32, %36 ], [ undef, %0 ]
  %16 = getelementptr [33 x i8], [33 x i8]* %10, i64 %14, i64 0
  %17 = getelementptr [33 x i8], [33 x i8]* %7, i64 %14, i64 0
  %18 = call i32 (i8*, ...) @__isoc99_scanf(i8* getelementptr inbounds ([3 x i8], [3 x i8]* @.str.1, i64 0, i64 0), i8* nonnull %17)
  %19 = call i64 @strlen(i8* noundef nonnull %17) #8
  %20 = trunc i64 %19 to i32
  %21 = shl i64 %19, 32
  %22 = add i64 %21, -4294967296
  %23 = ashr exact i64 %22, 32
  %24 = getelementptr inbounds [33 x i8], [33 x i8]* %7, i64 %14, i64 %23
  %25 = load i8, i8* %24, align 1, !tbaa !9
  switch i8 %25, label %28 [
    i8 114, label %26
    i8 121, label %26
  ]

26:                                               ; preds = %13, %13
  %27 = add nsw i32 %20, -2
  br label %28

28:                                               ; preds = %13, %26
  %29 = phi i32 [ %27, %26 ], [ %15, %13 ]
  %30 = icmp eq i8 %25, 103
  %31 = add nsw i32 %20, -3
  %32 = select i1 %30, i32 %31, i32 %29
  %33 = icmp sgt i32 %32, 0
  br i1 %33, label %34, label %36

34:                                               ; preds = %28
  %35 = zext i32 %32 to i64
  call void @llvm.memcpy.p0i8.p0i8.i64(i8* align 1 %16, i8* align 1 %17, i64 %35, i1 false)
  br label %36

36:                                               ; preds = %34, %28
  %37 = sext i32 %32 to i64
  %38 = getelementptr inbounds [33 x i8], [33 x i8]* %10, i64 %14, i64 %37
  store i8 0, i8* %38, align 1, !tbaa !9
  %39 = call i32 @puts(i8* nonnull %16)
  %40 = add nuw nsw i64 %14, 1
  %41 = load i32, i32* %1, align 4, !tbaa !5
  %42 = sext i32 %41 to i64
  %43 = icmp slt i64 %40, %42
  br i1 %43, label %13, label %12, !llvm.loop !10
}

; Function Attrs: argmemonly mustprogress nofree nosync nounwind willreturn
declare void @llvm.lifetime.start.p0i8(i64 immarg, i8* nocapture) #1

; Function Attrs: nofree nounwind
declare noundef i32 @__isoc99_scanf(i8* nocapture noundef readonly, ...) local_unnamed_addr #2

; Function Attrs: mustprogress nofree nosync nounwind willreturn
declare i8* @llvm.stacksave() #3

; Function Attrs: argmemonly mustprogress nofree nounwind readonly willreturn
declare i64 @strlen(i8* nocapture) local_unnamed_addr #4

; Function Attrs: argmemonly mustprogress nofree nosync nounwind willreturn
declare void @llvm.lifetime.end.p0i8(i64 immarg, i8* nocapture) #1

; Function Attrs: mustprogress nofree nosync nounwind willreturn
declare void @llvm.stackrestore(i8*) #3

; Function Attrs: nofree nounwind
declare noundef i32 @puts(i8* nocapture noundef readonly) local_unnamed_addr #5

; Function Attrs: argmemonly nofree nounwind willreturn
declare void @llvm.memcpy.p0i8.p0i8.i64(i8* noalias nocapture writeonly, i8* noalias nocapture readonly, i64, i1 immarg) #6


!llvm.module.flags = !{!0, !1, !2, !3}
!llvm.ident = !{!4}

!0 = !{i32 1, !"wchar_size", i32 4}
!1 = !{i32 7, !"PIC Level", i32 2}
!2 = !{i32 7, !"PIE Level", i32 2}
!3 = !{i32 7, !"uwtable", i32 1}
!4 = !{!"clang version 13.0.0"}
!5 = !{!6, !6, i64 0}
!6 = !{!"int", !7, i64 0}
!7 = !{!"omnipotent char", !8, i64 0}
!8 = !{!"Simple C/C++ TBAA"}
!9 = !{!7, !7, i64 0}
!10 = distinct !{!10, !11}
!11 = !{!"llvm.loop.mustprogress"}
